target datalayout = "e-m:e-p270:32:32-p271:32:32-p272:64:64-i64:64-i128:128-f80:128-n8:16:32:64-S128"
target triple = "x86_64-pc-linux-gnu"

%"class.OpenImageIO::v3_1_0::span" = type { ptr, i64 }
%"class.OpenImageIO::v3_1_0::span.30" = type { ptr, i64 }
%"class.OpenImageIO::v3_1_0::ImageSpec" = type { i32, i32, i32, i32, i32, i32, i32, i32, i32, i32, i32, i32, i32, i32, i32, i32, %"struct.OpenImageIO::v3_1_0::TypeDesc", %"class.std::vector", %"class.std::vector.0", i32, i32, i8, %"class.OpenImageIO::v3_1_0::ParamValueList" }
%"struct.OpenImageIO::v3_1_0::TypeDesc" = type { i8, i8, i8, i8, i32 }
%"class.std::vector" = type { %"struct.std::_Vector_base" }
%"struct.std::_Vector_base" = type { %"struct.std::_Vector_base<OpenImageIO::v3_1_0::TypeDesc, std::allocator<OpenImageIO::v3_1_0::TypeDesc>>::_Vector_impl" }
%"struct.std::_Vector_base<OpenImageIO::v3_1_0::TypeDesc, std::allocator<OpenImageIO::v3_1_0::TypeDesc>>::_Vector_impl" = type { %"struct.std::_Vector_base<OpenImageIO::v3_1_0::TypeDesc, std::allocator<OpenImageIO::v3_1_0::TypeDesc>>::_Vector_impl_data" }
%"struct.std::_Vector_base<OpenImageIO::v3_1_0::TypeDesc, std::allocator<OpenImageIO::v3_1_0::TypeDesc>>::_Vector_impl_data" = type { ptr, ptr, ptr }
%"class.std::vector.0" = type { %"struct.std::_Vector_base.1" }
%"struct.std::_Vector_base.1" = type { %"struct.std::_Vector_base<std::__cxx11::basic_string<char>, std::allocator<std::__cxx11::basic_string<char>>>::_Vector_impl" }
%"struct.std::_Vector_base<std::__cxx11::basic_string<char>, std::allocator<std::__cxx11::basic_string<char>>>::_Vector_impl" = type { %"struct.std::_Vector_base<std::__cxx11::basic_string<char>, std::allocator<std::__cxx11::basic_string<char>>>::_Vector_impl_data" }
%"struct.std::_Vector_base<std::__cxx11::basic_string<char>, std::allocator<std::__cxx11::basic_string<char>>>::_Vector_impl_data" = type { ptr, ptr, ptr }
%"class.OpenImageIO::v3_1_0::ParamValueList" = type { %"class.std::vector.5" }
%"class.std::vector.5" = type { %"struct.std::_Vector_base.6" }
%"struct.std::_Vector_base.6" = type { %"struct.std::_Vector_base<OpenImageIO::v3_1_0::ParamValue, std::allocator<OpenImageIO::v3_1_0::ParamValue>>::_Vector_impl" }
%"struct.std::_Vector_base<OpenImageIO::v3_1_0::ParamValue, std::allocator<OpenImageIO::v3_1_0::ParamValue>>::_Vector_impl" = type { %"struct.std::_Vector_base<OpenImageIO::v3_1_0::ParamValue, std::allocator<OpenImageIO::v3_1_0::ParamValue>>::_Vector_impl_data" }
%"struct.std::_Vector_base<OpenImageIO::v3_1_0::ParamValue, std::allocator<OpenImageIO::v3_1_0::ParamValue>>::_Vector_impl_data" = type { ptr, ptr, ptr }

; Function Attrs: mustprogress nounwind uwtable
define linkonce_odr noundef ptr @_ZNKSt6vectorINSt7__cxx1112basic_stringIcSt11char_traitsIcESaIcEEESaIS5_EE11_M_data_ptrIS5_EEPT_SA_(ptr noundef nonnull align 8 dereferenceable(24) %0, ptr noundef %1) #5 comdat align 2 {
  %3 = alloca ptr, align 8
  %4 = alloca ptr, align 8
  store ptr %0, ptr %3, align 8, !tbaa !88
  store ptr %1, ptr %4, align 8, !tbaa !102
  %5 = load ptr, ptr %4, align 8, !tbaa !102
  ret ptr %5
}

; Function Attrs: mustprogress nounwind uwtable
define linkonce_odr noundef ptr @_ZNKSt6vectorIN11OpenImageIO6v3_1_08TypeDescESaIS2_EE11_M_data_ptrIS2_EEPT_S7_(ptr noundef nonnull align 8 dereferenceable(24) %0, ptr noundef %1) #5 comdat align 2 {
  %3 = alloca ptr, align 8
  %4 = alloca ptr, align 8
  store ptr %0, ptr %3, align 8, !tbaa !108
  store ptr %1, ptr %4, align 8, !tbaa !63
  %5 = load ptr, ptr %4, align 8, !tbaa !63
  ret ptr %5
}

; Function Attrs: mustprogress nounwind uwtable
define linkonce_odr noundef i64 @_ZNKSt6vectorINSt7__cxx1112basic_stringIcSt11char_traitsIcESaIcEEESaIS5_EE4sizeEv(ptr noundef nonnull align 8 dereferenceable(24) %0) #5 comdat align 2 {
  %2 = alloca ptr, align 8
  store ptr %0, ptr %2, align 8, !tbaa !88
  %3 = load ptr, ptr %2, align 8
  %4 = getelementptr inbounds nuw %"struct.std::_Vector_base.1", ptr %3, i32 0, i32 0
  %5 = getelementptr inbounds nuw %"struct.std::_Vector_base<std::__cxx11::basic_string<char>, std::allocator<std::__cxx11::basic_string<char>>>::_Vector_impl_data", ptr %4, i32 0, i32 1
  %6 = load ptr, ptr %5, align 8, !tbaa !445
  %7 = getelementptr inbounds nuw %"struct.std::_Vector_base.1", ptr %3, i32 0, i32 0
  %8 = getelementptr inbounds nuw %"struct.std::_Vector_base<std::__cxx11::basic_string<char>, std::allocator<std::__cxx11::basic_string<char>>>::_Vector_impl_data", ptr %7, i32 0, i32 0
  %9 = load ptr, ptr %8, align 8, !tbaa !99
  %10 = ptrtoint ptr %6 to i64
  %11 = ptrtoint ptr %9 to i64
  %12 = sub i64 %10, %11
  %13 = sdiv exact i64 %12, 32
  ret i64 %13
}

; Function Attrs: mustprogress nounwind uwtable
define linkonce_odr noundef ptr @_ZNKSt6vectorINSt7__cxx1112basic_stringIcSt11char_traitsIcESaIcEEESaIS5_EE4dataEv(ptr noundef nonnull align 8 dereferenceable(24) %0) #5 comdat align 2 {
  %2 = alloca ptr, align 8
  store ptr %0, ptr %2, align 8, !tbaa !88
  %3 = load ptr, ptr %2, align 8
  %4 = getelementptr inbounds nuw %"struct.std::_Vector_base.1", ptr %3, i32 0, i32 0
  %5 = getelementptr inbounds nuw %"struct.std::_Vector_base<std::__cxx11::basic_string<char>, std::allocator<std::__cxx11::basic_string<char>>>::_Vector_impl_data", ptr %4, i32 0, i32 0
  %6 = load ptr, ptr %5, align 8, !tbaa !99
  %7 = call noundef ptr @_ZNKSt6vectorINSt7__cxx1112basic_stringIcSt11char_traitsIcESaIcEEESaIS5_EE11_M_data_ptrIS5_EEPT_SA_(ptr noundef nonnull align 8 dereferenceable(24) %3, ptr noundef %6) #3
  ret ptr %7
}

; Function Attrs: mustprogress nounwind uwtable
define linkonce_odr noundef ptr @_ZNKSt6vectorIN11OpenImageIO6v3_1_08TypeDescESaIS2_EE4dataEv(ptr noundef nonnull align 8 dereferenceable(24) %0) #5 comdat align 2 {
  %2 = alloca ptr, align 8
  store ptr %0, ptr %2, align 8, !tbaa !108
  %3 = load ptr, ptr %2, align 8
  %4 = getelementptr inbounds nuw %"struct.std::_Vector_base", ptr %3, i32 0, i32 0
  %5 = getelementptr inbounds nuw %"struct.std::_Vector_base<OpenImageIO::v3_1_0::TypeDesc, std::allocator<OpenImageIO::v3_1_0::TypeDesc>>::_Vector_impl_data", ptr %4, i32 0, i32 0
  %6 = load ptr, ptr %5, align 8, !tbaa !110
  %7 = call noundef ptr @_ZNKSt6vectorIN11OpenImageIO6v3_1_08TypeDescESaIS2_EE11_M_data_ptrIS2_EEPT_S7_(ptr noundef nonnull align 8 dereferenceable(24) %3, ptr noundef %6) #3
  ret ptr %7
}

; Function Attrs: mustprogress nounwind uwtable
define linkonce_odr hidden void @_ZN11OpenImageIO6v3_1_04spanIKNS0_8TypeDescELm18446744073709551615EEC2ERS3_(ptr noundef nonnull align 8 dereferenceable(16) %0, ptr noundef nonnull align 4 dereferenceable(8) %1) unnamed_addr #5 comdat align 2 {
  %3 = alloca ptr, align 8
  %4 = alloca ptr, align 8
  store ptr %0, ptr %3, align 8, !tbaa !67
  store ptr %1, ptr %4, align 8, !tbaa !63
  %5 = load ptr, ptr %3, align 8
  %6 = getelementptr inbounds nuw %"class.OpenImageIO::v3_1_0::span", ptr %5, i32 0, i32 0
  %7 = load ptr, ptr %4, align 8, !tbaa !63
  store ptr %7, ptr %6, align 8, !tbaa !125
  %8 = getelementptr inbounds nuw %"class.OpenImageIO::v3_1_0::span", ptr %5, i32 0, i32 1
  store i64 1, ptr %8, align 8, !tbaa !69
  ret void
}

; Function Attrs: mustprogress nounwind uwtable
define linkonce_odr hidden void @_ZN11OpenImageIO6v3_1_04spanIKNSt7__cxx1112basic_stringIcSt11char_traitsIcESaIcEEELm18446744073709551615EEC2ISaIS7_EEERKSt6vectorIS7_T_E(ptr noundef nonnull align 8 dereferenceable(16) %0, ptr noundef nonnull align 8 dereferenceable(24) %1) unnamed_addr #5 comdat align 2 {
  %3 = alloca ptr, align 8
  %4 = alloca ptr, align 8
  store ptr %0, ptr %3, align 8, !tbaa !86
  store ptr %1, ptr %4, align 8, !tbaa !88
  %5 = load ptr, ptr %3, align 8
  %6 = getelementptr inbounds nuw %"class.OpenImageIO::v3_1_0::span.30", ptr %5, i32 0, i32 0
  %7 = load ptr, ptr %4, align 8, !tbaa !88
  %8 = call noundef ptr @_ZNKSt6vectorINSt7__cxx1112basic_stringIcSt11char_traitsIcESaIcEEESaIS5_EE4dataEv(ptr noundef nonnull align 8 dereferenceable(24) %7) #3
  store ptr %8, ptr %6, align 8, !tbaa !90
  %9 = getelementptr inbounds nuw %"class.OpenImageIO::v3_1_0::span.30", ptr %5, i32 0, i32 1
  %10 = load ptr, ptr %4, align 8, !tbaa !88
  %11 = call noundef i64 @_ZNKSt6vectorINSt7__cxx1112basic_stringIcSt11char_traitsIcESaIcEEESaIS5_EE4sizeEv(ptr noundef nonnull align 8 dereferenceable(24) %10) #3
  store i64 %11, ptr %9, align 8, !tbaa !92
  ret void
}

; Function Attrs: mustprogress nounwind uwtable
define linkonce_odr hidden void @_ZN11OpenImageIO6v3_1_04spanIKNS0_8TypeDescELm18446744073709551615EEC2ISaIS2_EEERKSt6vectorIS2_T_E(ptr noundef nonnull align 8 dereferenceable(16) %0, ptr noundef nonnull align 8 dereferenceable(24) %1) unnamed_addr #5 comdat align 2 {
  %3 = alloca ptr, align 8
  %4 = alloca ptr, align 8
  store ptr %0, ptr %3, align 8, !tbaa !67
  store ptr %1, ptr %4, align 8, !tbaa !108
  %5 = load ptr, ptr %3, align 8
  %6 = getelementptr inbounds nuw %"class.OpenImageIO::v3_1_0::span", ptr %5, i32 0, i32 0
  %7 = load ptr, ptr %4, align 8, !tbaa !108
  %8 = call noundef ptr @_ZNKSt6vectorIN11OpenImageIO6v3_1_08TypeDescESaIS2_EE4dataEv(ptr noundef nonnull align 8 dereferenceable(24) %7) #3
  store ptr %8, ptr %6, align 8, !tbaa !125
  %9 = getelementptr inbounds nuw %"class.OpenImageIO::v3_1_0::span", ptr %5, i32 0, i32 1
  %10 = load ptr, ptr %4, align 8, !tbaa !108
  %11 = call noundef i64 @_ZNKSt6vectorIN11OpenImageIO6v3_1_08TypeDescESaIS2_EE4sizeEv(ptr noundef nonnull align 8 dereferenceable(24) %10) #3
  store i64 %11, ptr %9, align 8, !tbaa !69
  ret void
}

; Function Attrs: mustprogress nounwind uwtable
define linkonce_odr noundef i64 @_ZNKSt6vectorIN11OpenImageIO6v3_1_08TypeDescESaIS2_EE4sizeEv(ptr noundef nonnull align 8 dereferenceable(24) %0) #5 comdat align 2 {
  %2 = alloca ptr, align 8
  store ptr %0, ptr %2, align 8, !tbaa !108
  %3 = load ptr, ptr %2, align 8
  %4 = getelementptr inbounds nuw %"struct.std::_Vector_base", ptr %3, i32 0, i32 0
  %5 = getelementptr inbounds nuw %"struct.std::_Vector_base<OpenImageIO::v3_1_0::TypeDesc, std::allocator<OpenImageIO::v3_1_0::TypeDesc>>::_Vector_impl_data", ptr %4, i32 0, i32 1
  %6 = load ptr, ptr %5, align 8, !tbaa !138
  %7 = getelementptr inbounds nuw %"struct.std::_Vector_base", ptr %3, i32 0, i32 0
  %8 = getelementptr inbounds nuw %"struct.std::_Vector_base<OpenImageIO::v3_1_0::TypeDesc, std::allocator<OpenImageIO::v3_1_0::TypeDesc>>::_Vector_impl_data", ptr %7, i32 0, i32 0
  %9 = load ptr, ptr %8, align 8, !tbaa !110
  %10 = ptrtoint ptr %6 to i64
  %11 = ptrtoint ptr %9 to i64
  %12 = sub i64 %10, %11
  %13 = sdiv exact i64 %12, 8
  ret i64 %13
}

; Function Attrs: mustprogress uwtable
define void @_ZN11OpenImageIO6v3_1_08DeepData4initERKNS0_9ImageSpecE(ptr noundef nonnull align 8 dereferenceable(20) %0, ptr noundef nonnull align 8 dereferenceable(160) %1) #6 align 2 {
  %3 = alloca ptr, align 8
  %4 = alloca ptr, align 8
  %5 = alloca %"class.OpenImageIO::v3_1_0::span", align 8
  %6 = alloca %"class.OpenImageIO::v3_1_0::span.30", align 8
  %7 = alloca %"class.OpenImageIO::v3_1_0::span", align 8
  %8 = alloca %"class.OpenImageIO::v3_1_0::span.30", align 8
  store ptr %0, ptr %3, align 8, !tbaa !3
  store ptr %1, ptr %4, align 8, !tbaa !15
  %9 = load ptr, ptr %3, align 8
  %10 = load ptr, ptr %4, align 8, !tbaa !15
  %11 = getelementptr inbounds nuw %"class.OpenImageIO::v3_1_0::ImageSpec", ptr %10, i32 0, i32 17
  %12 = call noundef i64 @_ZNKSt6vectorIN11OpenImageIO6v3_1_08TypeDescESaIS2_EE4sizeEv(ptr noundef nonnull align 8 dereferenceable(24) %11) #3
  %13 = trunc i64 %12 to i32
  %14 = load ptr, ptr %4, align 8, !tbaa !15
  %15 = getelementptr inbounds nuw %"class.OpenImageIO::v3_1_0::ImageSpec", ptr %14, i32 0, i32 15
  %16 = load i32, ptr %15, align 4, !tbaa !17
  %17 = icmp eq i32 %13, %16
  br i1 %17, label %18, label %34

18:                                               ; preds = %2
  %19 = load ptr, ptr %4, align 8, !tbaa !15
  %20 = call noundef i64 @_ZNK11OpenImageIO6v3_1_09ImageSpec12image_pixelsEv(ptr noundef nonnull align 8 dereferenceable(160) %19) #3
  %21 = trunc i64 %20 to i32
  %22 = sext i32 %21 to i64
  %23 = load ptr, ptr %4, align 8, !tbaa !15
  %24 = getelementptr inbounds nuw %"class.OpenImageIO::v3_1_0::ImageSpec", ptr %23, i32 0, i32 15
  %25 = load i32, ptr %24, align 4, !tbaa !17
  %26 = load ptr, ptr %4, align 8, !tbaa !15
  %27 = getelementptr inbounds nuw %"class.OpenImageIO::v3_1_0::ImageSpec", ptr %26, i32 0, i32 17
  call void @_ZN11OpenImageIO6v3_1_04spanIKNS0_8TypeDescELm18446744073709551615EEC2ISaIS2_EEERKSt6vectorIS2_T_E(ptr noundef nonnull align 8 dereferenceable(16) %5, ptr noundef nonnull align 8 dereferenceable(24) %27) #3
  %28 = load ptr, ptr %4, align 8, !tbaa !15
  %29 = getelementptr inbounds nuw %"class.OpenImageIO::v3_1_0::ImageSpec", ptr %28, i32 0, i32 18
  call void @_ZN11OpenImageIO6v3_1_04spanIKNSt7__cxx1112basic_stringIcSt11char_traitsIcESaIcEEELm18446744073709551615EEC2ISaIS7_EEERKSt6vectorIS7_T_E(ptr noundef nonnull align 8 dereferenceable(16) %6, ptr noundef nonnull align 8 dereferenceable(24) %29) #3
  %30 = getelementptr inbounds nuw { ptr, i64 }, ptr %5, i32 0, i32 0
  %31 = load ptr, ptr %30, align 8
  %32 = getelementptr inbounds nuw { ptr, i64 }, ptr %5, i32 0, i32 1
  %33 = load i64, ptr %32, align 8
  call void @_ZN11OpenImageIO6v3_1_08DeepData4initEliNS0_4spanIKNS0_8TypeDescELm18446744073709551615EEENS2_IKNSt7__cxx1112basic_stringIcSt11char_traitsIcESaIcEEELm18446744073709551615EEE(ptr noundef nonnull align 8 dereferenceable(20) %9, i64 noundef %22, i32 noundef %25, ptr %31, i64 %33, ptr noundef byval(%"class.OpenImageIO::v3_1_0::span.30") align 8 %6)
  br label %50

34:                                               ; preds = %2
  %35 = load ptr, ptr %4, align 8, !tbaa !15
  %36 = call noundef i64 @_ZNK11OpenImageIO6v3_1_09ImageSpec12image_pixelsEv(ptr noundef nonnull align 8 dereferenceable(160) %35) #3
  %37 = trunc i64 %36 to i32
  %38 = sext i32 %37 to i64
  %39 = load ptr, ptr %4, align 8, !tbaa !15
  %40 = getelementptr inbounds nuw %"class.OpenImageIO::v3_1_0::ImageSpec", ptr %39, i32 0, i32 15
  %41 = load i32, ptr %40, align 4, !tbaa !17
  %42 = load ptr, ptr %4, align 8, !tbaa !15
  %43 = getelementptr inbounds nuw %"class.OpenImageIO::v3_1_0::ImageSpec", ptr %42, i32 0, i32 16
  call void @_ZN11OpenImageIO6v3_1_04spanIKNS0_8TypeDescELm18446744073709551615EEC2ERS3_(ptr noundef nonnull align 8 dereferenceable(16) %7, ptr noundef nonnull align 4 dereferenceable(8) %43)
  %44 = load ptr, ptr %4, align 8, !tbaa !15
  %45 = getelementptr inbounds nuw %"class.OpenImageIO::v3_1_0::ImageSpec", ptr %44, i32 0, i32 18
  call void @_ZN11OpenImageIO6v3_1_04spanIKNSt7__cxx1112basic_stringIcSt11char_traitsIcESaIcEEELm18446744073709551615EEC2ISaIS7_EEERKSt6vectorIS7_T_E(ptr noundef nonnull align 8 dereferenceable(16) %8, ptr noundef nonnull align 8 dereferenceable(24) %45) #3
  %46 = getelementptr inbounds nuw { ptr, i64 }, ptr %7, i32 0, i32 0
  %47 = load ptr, ptr %46, align 8
  %48 = getelementptr inbounds nuw { ptr, i64 }, ptr %7, i32 0, i32 1
  %49 = load i64, ptr %48, align 8
  call void @_ZN11OpenImageIO6v3_1_08DeepData4initEliNS0_4spanIKNS0_8TypeDescELm18446744073709551615EEENS2_IKNSt7__cxx1112basic_stringIcSt11char_traitsIcESaIcEEELm18446744073709551615EEE(ptr noundef nonnull align 8 dereferenceable(20) %9, i64 noundef %38, i32 noundef %41, ptr %47, i64 %49, ptr noundef byval(%"class.OpenImageIO::v3_1_0::span.30") align 8 %8)
  br label %50

50:                                               ; preds = %34, %18
  ret void
}