; Function Attrs: mustprogress uwtable
define void @_ZN11OpenImageIO6v3_1_08DeepData4initERKNS0_9ImageSpecE(ptr noundef nonnull align 8 captures(none) dereferenceable(20) initializes((8, 20)) %0, ptr noundef nonnull align 8 dereferenceable(160) %1) local_unnamed_addr #5 align 2 {
  %3 = alloca %"class.OpenImageIO::v3_1_0::span.30", align 8
  %4 = alloca %"class.OpenImageIO::v3_1_0::span.30", align 8
  %5 = getelementptr inbounds nuw i8, ptr %1, i64 72
  %6 = getelementptr inbounds nuw i8, ptr %1, i64 80
  %7 = load ptr, ptr %6, align 8, !tbaa !3
  %8 = load ptr, ptr %5, align 8, !tbaa !9
  %9 = ptrtoint ptr %7 to i64
  %10 = ptrtoint ptr %8 to i64
  %11 = sub i64 %9, %10
  %12 = lshr exact i64 %11, 3
  %13 = trunc i64 %12 to i32
  %14 = getelementptr inbounds nuw i8, ptr %1, i64 60
  %15 = load i32, ptr %14, align 4, !tbaa !10
  %16 = icmp eq i32 %15, %13
  %17 = tail call noundef i64 @_ZNK11OpenImageIO6v3_1_09ImageSpec12image_pixelsEv(ptr noundef nonnull align 8 dereferenceable(160) %1) #30
  %sext11 = shl i64 %17, 32
  %18 = ashr exact i64 %sext11, 32
  %19 = load i32, ptr %14, align 4, !tbaa !10
  br i1 %16, label %20, label %36

20:                                               ; preds = %2
  %21 = load ptr, ptr %5, align 8, !tbaa !9
  %22 = load ptr, ptr %6, align 8, !tbaa !3
  %23 = ptrtoint ptr %22 to i64
  %24 = ptrtoint ptr %21 to i64
  %25 = sub i64 %23, %24
  %26 = ashr exact i64 %25, 3
  %27 = getelementptr inbounds nuw i8, ptr %1, i64 96
  %28 = load ptr, ptr %27, align 8, !tbaa !29
  store ptr %28, ptr %3, align 8, !tbaa !30
  %29 = getelementptr inbounds nuw i8, ptr %3, i64 8
  %30 = getelementptr inbounds nuw i8, ptr %1, i64 104
  %31 = load ptr, ptr %30, align 8, !tbaa !33
  %32 = ptrtoint ptr %31 to i64
  %33 = ptrtoint ptr %28 to i64
  %34 = sub i64 %32, %33
  %35 = ashr exact i64 %34, 5
  store i64 %35, ptr %29, align 8, !tbaa !34
  tail call void @_ZN11OpenImageIO6v3_1_08DeepData4initEliNS0_4spanIKNS0_8TypeDescELm18446744073709551615EEENS2_IKNSt7__cxx1112basic_stringIcSt11char_traitsIcESaIcEEELm18446744073709551615EEE(ptr noundef nonnull align 8 dereferenceable(20) %0, i64 noundef %18, i32 noundef %19, ptr %21, i64 %26, ptr noundef nonnull byval(%"class.OpenImageIO::v3_1_0::span.30") align 8 %3)
  br label %47

36:                                               ; preds = %2
  %37 = getelementptr inbounds nuw i8, ptr %1, i64 64
  %38 = getelementptr inbounds nuw i8, ptr %1, i64 96
  %39 = load ptr, ptr %38, align 8, !tbaa !29
  store ptr %39, ptr %4, align 8, !tbaa !30
  %40 = getelementptr inbounds nuw i8, ptr %4, i64 8
  %41 = getelementptr inbounds nuw i8, ptr %1, i64 104
  %42 = load ptr, ptr %41, align 8, !tbaa !33
  %43 = ptrtoint ptr %42 to i64
  %44 = ptrtoint ptr %39 to i64
  %45 = sub i64 %43, %44
  %46 = ashr exact i64 %45, 5
  store i64 %46, ptr %40, align 8, !tbaa !34
  tail call void @_ZN11OpenImageIO6v3_1_08DeepData4initEliNS0_4spanIKNS0_8TypeDescELm18446744073709551615EEENS2_IKNSt7__cxx1112basic_stringIcSt11char_traitsIcESaIcEEELm18446744073709551615EEE(ptr noundef nonnull align 8 dereferenceable(20) %0, i64 noundef %18, i32 noundef %19, ptr nonnull %37, i64 1, ptr noundef nonnull byval(%"class.OpenImageIO::v3_1_0::span.30") align 8 %4)
  br label %47

47:                                               ; preds = %36, %20
  ret void
}